; ModuleID = '11/113.c'
source_filename = "11/113.c"
target datalayout = "e-m:e-p270:32:32-p271:32:32-p272:64:64-i64:64-f80:128-n8:16:32:64-S128"
target triple = "x86_64-pc-linux-gnu"

@.str = private unnamed_addr constant [7 x i8] c"%d%d%d\00", align 1
@.str.1 = private unnamed_addr constant [3 x i8] c"%d\00", align 1

; Function Attrs: noinline nounwind uwtable
define dso_local i32 @main(i32 %0, i8** %1) #0 {
  %3 = alloca i32, align 4
  %4 = alloca i32, align 4
  %5 = alloca i8**, align 8
  %6 = alloca i32, align 4
  %7 = alloca i32, align 4
  %8 = alloca i32, align 4
  %9 = alloca i32, align 4
  %10 = alloca i32, align 4
  store i32 0, i32* %3, align 4
  store i32 %0, i32* %4, align 4
  store i8** %1, i8*** %5, align 8
  %11 = call i32 (i8*, ...) @__isoc99_scanf(i8* getelementptr inbounds ([7 x i8], [7 x i8]* @.str, i64 0, i64 0), i32* %6, i32* %7, i32* %8)
  store i32 0, i32* %9, align 4
  store i32 0, i32* %10, align 4
  br label %12

12:                                               ; preds = %78, %2
  %13 = load i32, i32* %10, align 4
  %14 = load i32, i32* %7, align 4
  %15 = icmp slt i32 %13, %14
  br i1 %15, label %16, label %81

16:                                               ; preds = %12
  %17 = load i32, i32* %10, align 4
  %18 = icmp eq i32 %17, 1
  br i1 %18, label %37, label %19

19:                                               ; preds = %16
  %20 = load i32, i32* %10, align 4
  %21 = icmp eq i32 %20, 3
  br i1 %21, label %37, label %22

22:                                               ; preds = %19
  %23 = load i32, i32* %10, align 4
  %24 = icmp eq i32 %23, 5
  br i1 %24, label %37, label %25

25:                                               ; preds = %22
  %26 = load i32, i32* %10, align 4
  %27 = icmp eq i32 %26, 7
  br i1 %27, label %37, label %28

28:                                               ; preds = %25
  %29 = load i32, i32* %10, align 4
  %30 = icmp eq i32 %29, 8
  br i1 %30, label %37, label %31

31:                                               ; preds = %28
  %32 = load i32, i32* %10, align 4
  %33 = icmp eq i32 %32, 10
  br i1 %33, label %37, label %34

34:                                               ; preds = %31
  %35 = load i32, i32* %10, align 4
  %36 = icmp eq i32 %35, 12
  br i1 %36, label %37, label %40

37:                                               ; preds = %34, %31, %28, %25, %22, %19, %16
  %38 = load i32, i32* %9, align 4
  %39 = add nsw i32 %38, 31
  store i32 %39, i32* %9, align 4
  br label %40

40:                                               ; preds = %37, %34
  %41 = load i32, i32* %10, align 4
  %42 = icmp eq i32 %41, 4
  br i1 %42, label %52, label %43

43:                                               ; preds = %40
  %44 = load i32, i32* %10, align 4
  %45 = icmp eq i32 %44, 6
  br i1 %45, label %52, label %46

46:                                               ; preds = %43
  %47 = load i32, i32* %10, align 4
  %48 = icmp eq i32 %47, 9
  br i1 %48, label %52, label %49

49:                                               ; preds = %46
  %50 = load i32, i32* %10, align 4
  %51 = icmp eq i32 %50, 11
  br i1 %51, label %52, label %55

52:                                               ; preds = %49, %46, %43, %40
  %53 = load i32, i32* %9, align 4
  %54 = add nsw i32 %53, 30
  store i32 %54, i32* %9, align 4
  br label %55

55:                                               ; preds = %52, %49
  %56 = load i32, i32* %10, align 4
  %57 = icmp eq i32 %56, 2
  br i1 %57, label %58, label %77

58:                                               ; preds = %55
  %59 = load i32, i32* %6, align 4
  %60 = srem i32 %59, 4
  %61 = icmp eq i32 %60, 0
  br i1 %61, label %62, label %66

62:                                               ; preds = %58
  %63 = load i32, i32* %6, align 4
  %64 = srem i32 %63, 100
  %65 = icmp ne i32 %64, 0
  br i1 %65, label %70, label %66

66:                                               ; preds = %62, %58
  %67 = load i32, i32* %6, align 4
  %68 = srem i32 %67, 400
  %69 = icmp eq i32 %68, 0
  br i1 %69, label %70, label %73

70:                                               ; preds = %66, %62
  %71 = load i32, i32* %9, align 4
  %72 = add nsw i32 %71, 29
  store i32 %72, i32* %9, align 4
  br label %76

73:                                               ; preds = %66
  %74 = load i32, i32* %9, align 4
  %75 = add nsw i32 %74, 28
  store i32 %75, i32* %9, align 4
  br label %76

76:                                               ; preds = %73, %70
  br label %77

77:                                               ; preds = %76, %55
  br label %78

78:                                               ; preds = %77
  %79 = load i32, i32* %10, align 4
  %80 = add nsw i32 %79, 1
  store i32 %80, i32* %10, align 4
  br label %12

81:                                               ; preds = %12
  %82 = load i32, i32* %9, align 4
  %83 = load i32, i32* %8, align 4
  %84 = add nsw i32 %82, %83
  store i32 %84, i32* %9, align 4
  %85 = load i32, i32* %9, align 4
  %86 = call i32 (i8*, ...) @printf(i8* getelementptr inbounds ([3 x i8], [3 x i8]* @.str.1, i64 0, i64 0), i32 %85)
  ret i32 0
}

declare dso_local i32 @__isoc99_scanf(i8*, ...) #1

declare dso_local i32 @printf(i8*, ...) #1


!llvm.module.flags = !{!0}
!llvm.ident = !{!1}

!0 = !{i32 1, !"wchar_size", i32 4}
!1 = !{!"clang version 10.0.0-4ubuntu1 "}
